ccopy_reg
_reconstructor
p0
(csympy.matrices.dense
MutableDenseMatrix
p1
c__builtin__
object
p2
Ntp3
Rp4
(dp5
S'rows'
p6
I3
sS'_mat'
p7
(lp8
csympy.core.mul
Mul
p9
(csympy.functions.elementary.trigonometric
cos
p10
(csympy.core.symbol
Symbol
p11
(S'pitch'
p12
tp13
Rp14
(dp15
S'_assumptions'
p16
g0
(csympy.core.assumptions
StdFactKB
p17
c__builtin__
dict
p18
(dp19
S'real'
p20
NsS'zero'
p21
NsS'complex'
p22
NsS'commutative'
p23
I01
sS'rational'
p24
NsS'positive'
p25
NsS'negative'
p26
Nstp27
Rp28
(dp29
S'_generator'
p30
(dp31
sbsbtp32
Rp33
(dp34
bg10
(g11
(S'yaw'
p35
tp36
Rp37
(dp38
g16
g0
(g17
g18
(dp39
g20
Nsg21
Nsg22
Nsg23
I01
sg24
Nsg25
Nsg26
Nstp40
Rp41
(dp42
g30
(dp43
sbsbtp44
Rp45
(dp46
btp47
Rp48
(dp49
bacsympy.core.add
Add
p50
(g9
(csympy.core.numbers
NegativeOne
p51
(I-1
tp52
Rp53
(dp54
bg10
(g11
(S'roll'
p55
tp56
Rp57
(dp58
g16
g0
(g17
g18
(dp59
g20
Nsg25
Nsg21
Nsg23
I01
sg26
Nstp60
Rp61
(dp62
g30
(dp63
sbsbtp64
Rp65
(dp66
bcsympy.functions.elementary.trigonometric
sin
p67
(g37
tp68
Rp69
(dp70
btp71
Rp72
(dp73
bg9
(g45
g67
(g14
tp74
Rp75
(dp76
bg67
(g57
tp77
Rp78
(dp79
btp80
Rp81
(dp82
btp83
Rp84
(dp85
bag50
(g9
(g78
g69
tp86
Rp87
(dp88
bg9
(g65
g45
g75
tp89
Rp90
(dp91
btp92
Rp93
(dp94
bag9
(g33
g69
tp95
Rp96
(dp97
bag50
(g9
(g65
g45
tp98
Rp99
(dp100
bg9
(g75
g78
g69
tp101
Rp102
(dp103
btp104
Rp105
(dp106
bag50
(g9
(g53
g45
g78
tp107
Rp108
(dp109
bg9
(g65
g75
g69
tp110
Rp111
(dp112
btp113
Rp114
(dp115
bag9
(g53
g75
tp116
Rp117
(dp118
bag9
(g33
g78
tp119
Rp120
(dp121
bag9
(g33
g65
tp122
Rp123
(dp124
basS'cols'
p125
I3
sb.