csympy.matrices.immutable
ImmutableMatrix
p0
(csympy.core.numbers
Integer
p1
(I3
tp2
Rp3
(dp4
bg3
csympy.core.containers
Tuple
p5
(csympy.core.numbers
Float
p6
((I1
S'11a62633145c07L'
p7
I-106
I53
tp8
tp9
Rp10
(dp11
S'_prec'
p12
I53
sbg6
((I1
S'11a62633145c07L'
p13
I-105
I53
tp14
tp15
Rp16
(dp17
g12
I53
sbg6
((I0
S'1L'
p18
I0
I1
tp19
tp20
Rp21
(dp22
g12
I53
sbg6
((I0
S'26ef9d0b14ba9L'
p23
I-156
I50
tp24
tp25
Rp26
(dp27
g12
I53
sbg6
((I1
S'1L'
p28
I0
I1
tp29
tp30
Rp31
(dp32
g12
I53
sbg6
((I1
S'11a62633145c07L'
p33
I-105
I53
tp34
tp35
Rp36
(dp37
g12
I53
sbg6
((I0
S'1L'
p38
I0
I1
tp39
tp40
Rp41
(dp42
g12
I53
sbcsympy.core.numbers
Zero
p43
(I0
tp44
Rp45
(dp46
bg6
((I0
S'11a62633145c07L'
p47
I-106
I53
tp48
tp49
Rp50
(dp51
g12
I53
sbtp52
Rp53
(dp54
btp55
Rp56
(dp57
b.