csympy.matrices.immutable
ImmutableMatrix
p0
(csympy.core.numbers
Integer
p1
(I4
tp2
Rp3
(dp4
bg3
csympy.core.containers
Tuple
p5
(csympy.core.mul
Mul
p6
(csympy.functions.elementary.trigonometric
cos
p7
(csympy.core.symbol
Symbol
p8
(S'q1'
p9
tp10
Rp11
(dp12
S'_assumptions'
p13
ccopy_reg
_reconstructor
p14
(csympy.core.assumptions
StdFactKB
p15
c__builtin__
dict
p16
(dp17
S'real'
p18
NsS'irrational'
p19
NsS'antihermitian'
p20
NsS'nonpositive'
p21
NsS'algebraic'
p22
NsS'zero'
p23
NsS'infinite'
p24
NsS'integer'
p25
NsS'hermitian'
p26
NsS'odd'
p27
NsS'imaginary'
p28
NsS'even'
p29
NsS'commutative'
p30
I01
sS'positive'
p31
NsS'negative'
p32
NsS'nonnegative'
p33
NsS'complex'
p34
NsS'rational'
p35
NsS'finite'
p36
Nstp37
Rp38
(dp39
S'_generator'
p40
(dp41
sbsbtp42
Rp43
(dp44
bcsympy.functions.elementary.trigonometric
sin
p45
(csympy.core.add
Add
p46
(g8
(S'q2'
p47
tp48
Rp49
(dp50
g13
g14
(g15
g16
(dp51
g18
Nsg19
Nsg20
Nsg21
Nsg22
Nsg26
Nsg24
Nsg25
Nsg28
Nsg27
Nsg29
Nsg30
I01
sg23
Nsg31
Nsg32
Nsg33
Nsg34
Nsg35
Nsg36
Nstp52
Rp53
(dp54
g40
(dp55
sbsbg8
(S'q3'
p56
tp57
Rp58
(dp59
g13
g14
(g15
g16
(dp60
g18
Nsg19
Nsg20
Nsg21
Nsg22
Nsg23
Nsg24
Nsg25
Nsg26
Nsg27
Nsg28
Nsg29
Nsg30
I01
sg31
Nsg32
Nsg33
Nsg34
Nsg35
Nsg36
Nstp61
Rp62
(dp63
g40
(dp64
sbsbtp65
Rp66
(dp67
btp68
Rp69
(dp70
btp71
Rp72
(dp73
bg6
(g43
g7
(g46
(g49
g58
tp74
Rp75
(dp76
btp77
Rp78
(dp79
btp80
Rp81
(dp82
bg6
(csympy.core.numbers
NegativeOne
p83
(I-1
tp84
Rp85
(dp86
bg45
(g11
tp87
Rp88
(dp89
btp90
Rp91
(dp92
bg6
(g46
(csympy.core.numbers
Float
p93
((I0
S'b333333333333L'
p94
I-53
I52
tp95
tp96
Rp97
(dp98
S'_prec'
p99
I53
sbg6
(g93
((I0
S'5L'
p100
I-2
I3
tp101
tp102
Rp103
(dp104
g99
I53
sbg45
(g49
tp105
Rp106
(dp107
btp108
Rp109
(dp110
btp111
Rp112
(dp113
bg43
tp114
Rp115
(dp116
bg6
(g88
g69
tp117
Rp118
(dp119
bg6
(g78
g88
tp120
Rp121
(dp122
bg43
g6
(g112
g88
tp123
Rp124
(dp125
bg78
g6
(g85
g69
tp126
Rp127
(dp128
bcsympy.core.numbers
Zero
p129
(I0
tp130
Rp131
(dp132
bg46
(g93
((I0
S'3L'
p133
I-2
I2
tp134
tp135
Rp136
(dp137
g99
I53
sbg6
(g93
((I0
S'5L'
p138
I-2
I3
tp139
tp140
Rp141
(dp142
g99
I53
sbg7
(g49
tp143
Rp144
(dp145
btp146
Rp147
(dp148
btp149
Rp150
(dp151
bg131
g131
g131
csympy.core.numbers
One
p152
(I1
tp153
Rp154
(dp155
btp156
Rp157
(dp158
btp159
Rp160
(dp161
b.