csympy.matrices.immutable
ImmutableMatrix
p0
(csympy.core.numbers
Integer
p1
(I4
tp2
Rp3
(dp4
bg3
csympy.core.containers
Tuple
p5
(csympy.core.add
Add
p6
(csympy.core.mul
Mul
p7
(g6
(g7
(g6
(g7
(csympy.functions.elementary.trigonometric
sin
p8
(csympy.core.symbol
Symbol
p9
(S'q1'
p10
tp11
Rp12
(dp13
S'_assumptions'
p14
ccopy_reg
_reconstructor
p15
(csympy.core.assumptions
StdFactKB
p16
c__builtin__
dict
p17
(dp18
S'real'
p19
NsS'irrational'
p20
NsS'antihermitian'
p21
NsS'nonpositive'
p22
NsS'algebraic'
p23
NsS'zero'
p24
NsS'infinite'
p25
NsS'integer'
p26
NsS'hermitian'
p27
NsS'odd'
p28
NsS'imaginary'
p29
NsS'even'
p30
NsS'commutative'
p31
I01
sS'positive'
p32
NsS'negative'
p33
NsS'nonnegative'
p34
NsS'complex'
p35
NsS'rational'
p36
NsS'finite'
p37
Nstp38
Rp39
(dp40
S'_generator'
p41
(dp42
sbsbtp43
Rp44
(dp45
bg8
(g9
(S'q4'
p46
tp47
Rp48
(dp49
g14
g15
(g16
g17
(dp50
g19
Nsg20
Nsg21
Nsg22
Nsg23
Nsg27
Nsg25
Nsg26
Nsg29
Nsg28
Nsg30
Nsg31
I01
sg24
Nsg32
Nsg33
Nsg34
Nsg35
Nsg36
Nsg37
Nstp51
Rp52
(dp53
g41
(dp54
sbsbtp55
Rp56
(dp57
btp58
Rp59
(dp60
bg7
(csympy.functions.elementary.trigonometric
cos
p61
(g12
tp62
Rp63
(dp64
bg61
(g48
tp65
Rp66
(dp67
bg8
(g6
(g9
(S'q2'
p68
tp69
Rp70
(dp71
g14
g15
(g16
g17
(dp72
g19
Nsg20
Nsg21
Nsg22
Nsg23
Nsg27
Nsg25
Nsg26
Nsg29
Nsg28
Nsg30
Nsg31
I01
sg24
Nsg32
Nsg33
Nsg34
Nsg35
Nsg36
Nsg37
Nstp73
Rp74
(dp75
g41
(dp76
sbsbg9
(S'q3'
p77
tp78
Rp79
(dp80
g14
g15
(g16
g17
(dp81
g19
Nsg20
Nsg21
Nsg22
Nsg23
Nsg24
Nsg25
Nsg26
Nsg27
Nsg28
Nsg29
Nsg30
Nsg31
I01
sg32
Nsg33
Nsg34
Nsg35
Nsg36
Nsg37
Nstp82
Rp83
(dp84
g41
(dp85
sbsbtp86
Rp87
(dp88
btp89
Rp90
(dp91
btp92
Rp93
(dp94
btp95
Rp96
(dp97
bg61
(g9
(S'q5'
p98
tp99
Rp100
(dp101
g14
g15
(g16
g17
(dp102
g19
Nsg20
Nsg21
Nsg22
Nsg23
Nsg27
Nsg25
Nsg26
Nsg29
Nsg28
Nsg30
Nsg31
I01
sg24
Nsg32
Nsg33
Nsg34
Nsg35
Nsg36
Nsg37
Nstp103
Rp104
(dp105
g41
(dp106
sbsbtp107
Rp108
(dp109
btp110
Rp111
(dp112
bg7
(g63
g61
(g6
(g70
g79
tp113
Rp114
(dp115
btp116
Rp117
(dp118
bg8
(g100
tp119
Rp120
(dp121
btp122
Rp123
(dp124
btp125
Rp126
(dp127
bg61
(g9
(S'q6'
p128
tp129
Rp130
(dp131
g14
g15
(g16
g17
(dp132
g19
Nsg20
Nsg21
Nsg22
Nsg23
Nsg24
Nsg25
Nsg26
Nsg27
Nsg28
Nsg29
Nsg30
Nsg31
I01
sg32
Nsg33
Nsg34
Nsg35
Nsg36
Nsg37
Nstp133
Rp134
(dp135
g41
(dp136
sbsbtp137
Rp138
(dp139
btp140
Rp141
(dp142
bg7
(csympy.core.numbers
NegativeOne
p143
(I-1
tp144
Rp145
(dp146
bg6
(g7
(g145
g66
g44
tp147
Rp148
(dp149
bg7
(g63
g56
g90
tp150
Rp151
(dp152
btp153
Rp154
(dp155
bg8
(g130
tp156
Rp157
(dp158
btp159
Rp160
(dp161
btp162
Rp163
(dp164
bg6
(g7
(g6
(g7
(g66
g44
tp165
Rp166
(dp167
bg7
(g145
g63
g56
g90
tp168
Rp169
(dp170
btp171
Rp172
(dp173
bg138
tp174
Rp175
(dp176
bg7
(g145
g6
(g7
(g96
g108
tp177
Rp178
(dp179
bg7
(g63
g117
g120
tp180
Rp181
(dp182
btp183
Rp184
(dp185
bg157
tp186
Rp187
(dp188
btp189
Rp190
(dp191
bg6
(g7
(g145
g6
(g7
(g44
g56
tp192
Rp193
(dp194
bg7
(g63
g66
g90
tp195
Rp196
(dp197
btp198
Rp199
(dp200
bg120
tp201
Rp202
(dp203
bg7
(g63
g108
g117
tp204
Rp205
(dp206
btp207
Rp208
(dp209
bg6
(g7
(csympy.core.numbers
Float
p210
((I0
S'b333333333333L'
p211
I-53
I52
tp212
tp213
Rp214
(dp215
S'_prec'
p216
I53
sbg63
tp217
Rp218
(dp219
bg7
(g210
((I0
S'3L'
p220
I-1
I2
tp221
tp222
Rp223
(dp224
g216
I53
sbg63
g117
tp225
Rp226
(dp227
bg7
(g210
((I0
S'5L'
p228
I-2
I3
tp229
tp230
Rp231
(dp232
g216
I53
sbg63
g8
(g70
tp233
Rp234
(dp235
btp236
Rp237
(dp238
bg7
(g210
((I1
S'1ba5e353f7ced9L'
p239
I-57
I53
tp240
tp241
Rp242
(dp243
g216
I53
sbg63
g90
tp244
Rp245
(dp246
bg7
(g210
((I0
S'13645a1cac0831L'
p247
I-54
I53
tp248
tp249
Rp250
(dp251
g216
I53
sbg63
g108
g117
tp252
Rp253
(dp254
bg7
(g210
((I1
S'13645a1cac0831L'
p255
I-54
I53
tp256
tp257
Rp258
(dp259
g216
I53
sbg44
g56
g120
tp260
Rp261
(dp262
bg7
(g210
((I1
S'13645a1cac0831L'
p263
I-54
I53
tp264
tp265
Rp266
(dp267
g216
I53
sbg63
g66
g120
g90
tp268
Rp269
(dp270
btp271
Rp272
(dp273
bg6
(g7
(g6
(g7
(g6
(g7
(g145
g63
g56
tp274
Rp275
(dp276
bg7
(g66
g44
g90
tp277
Rp278
(dp279
btp280
Rp281
(dp282
bg108
tp283
Rp284
(dp285
bg7
(g117
g44
g120
tp286
Rp287
(dp288
btp289
Rp290
(dp291
bg138
tp292
Rp293
(dp294
bg7
(g145
g6
(g7
(g63
g66
tp295
Rp296
(dp297
bg7
(g44
g56
g90
tp298
Rp299
(dp300
btp301
Rp302
(dp303
bg157
tp304
Rp305
(dp306
btp307
Rp308
(dp309
bg6
(g7
(g145
g6
(g7
(g281
g108
tp310
Rp311
(dp312
bg7
(g117
g44
g120
tp313
Rp314
(dp315
btp316
Rp317
(dp318
bg157
tp319
Rp320
(dp321
bg7
(g145
g302
g138
tp322
Rp323
(dp324
btp325
Rp326
(dp327
bg6
(g7
(g145
g6
(g7
(g145
g63
g56
tp328
Rp329
(dp330
bg7
(g66
g44
g90
tp331
Rp332
(dp333
btp334
Rp335
(dp336
bg120
tp337
Rp338
(dp339
bg7
(g108
g117
g44
tp340
Rp341
(dp342
btp343
Rp344
(dp345
bg6
(g7
(g210
((I0
S'b333333333333L'
p346
I-53
I52
tp347
tp348
Rp349
(dp350
g216
I53
sbg44
tp351
Rp352
(dp353
bg7
(g210
((I0
S'3L'
p354
I-1
I2
tp355
tp356
Rp357
(dp358
g216
I53
sbg117
g44
tp359
Rp360
(dp361
bg7
(g210
((I0
S'5L'
p362
I-2
I3
tp363
tp364
Rp365
(dp366
g216
I53
sbg44
g234
tp367
Rp368
(dp369
bg7
(g210
((I1
S'1ba5e353f7ced9L'
p370
I-57
I53
tp371
tp372
Rp373
(dp374
g216
I53
sbg44
g90
tp375
Rp376
(dp377
bg7
(g210
((I0
S'13645a1cac0831L'
p378
I-54
I53
tp379
tp380
Rp381
(dp382
g216
I53
sbg63
g56
g120
tp383
Rp384
(dp385
bg7
(g210
((I0
S'13645a1cac0831L'
p386
I-54
I53
tp387
tp388
Rp389
(dp390
g216
I53
sbg108
g117
g44
tp391
Rp392
(dp393
bg7
(g210
((I1
S'13645a1cac0831L'
p394
I-54
I53
tp395
tp396
Rp397
(dp398
g216
I53
sbg66
g44
g120
g90
tp399
Rp400
(dp401
btp402
Rp403
(dp404
bg6
(g7
(g145
g6
(g7
(g120
g90
tp405
Rp406
(dp407
bg7
(g145
g66
g108
g117
tp408
Rp409
(dp410
btp411
Rp412
(dp413
bg138
tp414
Rp415
(dp416
bg7
(g145
g117
g56
g157
tp417
Rp418
(dp419
btp420
Rp421
(dp422
bg6
(g7
(g412
g157
tp423
Rp424
(dp425
bg7
(g145
g138
g117
g56
tp426
Rp427
(dp428
btp429
Rp430
(dp431
bg6
(g7
(g145
g108
g90
tp432
Rp433
(dp434
bg7
(g145
g66
g117
g120
tp435
Rp436
(dp437
btp438
Rp439
(dp440
bg6
(g210
((I0
S'3L'
p441
I-2
I2
tp442
tp443
Rp444
(dp445
g216
I53
sbg7
(g210
((I0
S'5L'
p446
I-2
I3
tp447
tp448
Rp449
(dp450
g216
I53
sbg61
(g70
tp451
Rp452
(dp453
btp454
Rp455
(dp456
bg7
(g210
((I1
S'3L'
p457
I-1
I2
tp458
tp459
Rp460
(dp461
g216
I53
sbg90
tp462
Rp463
(dp464
bg7
(g210
((I1
S'1ba5e353f7ced9L'
p465
I-57
I53
tp466
tp467
Rp468
(dp469
g216
I53
sbg117
tp470
Rp471
(dp472
bg7
(g210
((I1
S'13645a1cac0831L'
p473
I-54
I53
tp474
tp475
Rp476
(dp477
g216
I53
sbg108
g90
tp478
Rp479
(dp480
bg7
(g210
((I1
S'13645a1cac0831L'
p481
I-54
I53
tp482
tp483
Rp484
(dp485
g216
I53
sbg66
g117
g120
tp486
Rp487
(dp488
btp489
Rp490
(dp491
bcsympy.core.numbers
Zero
p492
(I0
tp493
Rp494
(dp495
bg494
g494
csympy.core.numbers
One
p496
(I1
tp497
Rp498
(dp499
btp500
Rp501
(dp502
btp503
Rp504
(dp505
b.