csympy.matrices.immutable
ImmutableMatrix
p0
(csympy.core.numbers
Integer
p1
(I4
tp2
Rp3
(dp4
bg3
csympy.core.containers
Tuple
p5
(csympy.core.add
Add
p6
(csympy.core.mul
Mul
p7
(csympy.core.numbers
Float
p8
((I0
S'26ef9d0b14ba9L'
p9
I-156
I50
tp10
tp11
Rp12
(dp13
S'_prec'
p14
I53
sbg6
(g7
(csympy.functions.elementary.trigonometric
cos
p15
(csympy.core.symbol
Symbol
p16
(S'q4'
p17
tp18
Rp19
(dp20
S'_assumptions'
p21
ccopy_reg
_reconstructor
p22
(csympy.core.assumptions
StdFactKB
p23
c__builtin__
dict
p24
(dp25
S'real'
p26
NsS'irrational'
p27
NsS'antihermitian'
p28
NsS'nonpositive'
p29
NsS'algebraic'
p30
NsS'hermitian'
p31
NsS'infinite'
p32
NsS'integer'
p33
NsS'imaginary'
p34
NsS'odd'
p35
NsS'even'
p36
NsS'commutative'
p37
I01
sS'zero'
p38
NsS'positive'
p39
NsS'negative'
p40
NsS'nonnegative'
p41
NsS'complex'
p42
NsS'rational'
p43
NsS'finite'
p44
Nstp45
Rp46
(dp47
S'_generator'
p48
(dp49
sbsbtp50
Rp51
(dp52
bcsympy.functions.elementary.trigonometric
sin
p53
(g16
(S'q1'
p54
tp55
Rp56
(dp57
g21
g22
(g23
g24
(dp58
g26
Nsg27
Nsg28
Nsg29
Nsg30
Nsg38
Nsg32
Nsg33
Nsg31
Nsg35
Nsg34
Nsg36
Nsg37
I01
sg39
Nsg40
Nsg41
Nsg42
Nsg43
Nsg44
Nstp59
Rp60
(dp61
g48
(dp62
sbsbtp63
Rp64
(dp65
btp66
Rp67
(dp68
bg7
(csympy.core.numbers
NegativeOne
p69
(I-1
tp70
Rp71
(dp72
bg15
(g56
tp73
Rp74
(dp75
bg53
(g19
tp76
Rp77
(dp78
bg53
(g6
(g16
(S'q2'
p79
tp80
Rp81
(dp82
g21
g22
(g23
g24
(dp83
g26
Nsg27
Nsg28
Nsg29
Nsg30
Nsg31
Nsg32
Nsg33
Nsg34
Nsg35
Nsg36
Nsg37
I01
sg38
Nsg39
Nsg40
Nsg41
Nsg42
Nsg43
Nsg44
Nstp84
Rp85
(dp86
g48
(dp87
sbsbg16
(S'q3'
p88
tp89
Rp90
(dp91
g21
g22
(g23
g24
(dp92
g26
Nsg27
Nsg28
Nsg29
Nsg30
Nsg38
Nsg32
Nsg33
Nsg31
Nsg35
Nsg34
Nsg36
Nsg37
I01
sg39
Nsg40
Nsg41
Nsg42
Nsg43
Nsg44
Nstp93
Rp94
(dp95
g48
(dp96
sbsbtp97
Rp98
(dp99
btp100
Rp101
(dp102
btp103
Rp104
(dp105
btp106
Rp107
(dp108
bg15
(g16
(S'q6'
p109
tp110
Rp111
(dp112
g21
g22
(g23
g24
(dp113
g26
Nsg27
Nsg28
Nsg29
Nsg30
Nsg38
Nsg32
Nsg33
Nsg31
Nsg35
Nsg34
Nsg36
Nsg37
I01
sg39
Nsg40
Nsg41
Nsg42
Nsg43
Nsg44
Nstp114
Rp115
(dp116
g48
(dp117
sbsbtp118
Rp119
(dp120
btp121
Rp122
(dp123
bg7
(g8
((I1
S'1L'
p124
I0
I1
tp125
tp126
Rp127
(dp128
g14
I53
sbg6
(g7
(g64
g77
tp129
Rp130
(dp131
bg7
(g74
g51
g101
tp132
Rp133
(dp134
btp135
Rp136
(dp137
bg53
(g16
(S'q5'
p138
tp139
Rp140
(dp141
g21
g22
(g23
g24
(dp142
g26
Nsg27
Nsg28
Nsg29
Nsg30
Nsg31
Nsg32
Nsg33
Nsg34
Nsg35
Nsg36
Nsg37
I01
sg38
Nsg39
Nsg40
Nsg41
Nsg42
Nsg43
Nsg44
Nstp143
Rp144
(dp145
g48
(dp146
sbsbtp147
Rp148
(dp149
btp150
Rp151
(dp152
bg7
(g8
((I1
S'26ef9d0b14ba9L'
p153
I-156
I50
tp154
tp155
Rp156
(dp157
g14
I53
sbg6
(g7
(g6
(g7
(g64
g77
tp158
Rp159
(dp160
bg7
(g74
g51
g101
tp161
Rp162
(dp163
btp164
Rp165
(dp166
bg15
(g140
tp167
Rp168
(dp169
btp170
Rp171
(dp172
bg7
(g74
g15
(g6
(g81
g90
tp173
Rp174
(dp175
btp176
Rp177
(dp178
bg148
tp179
Rp180
(dp181
btp182
Rp183
(dp184
bg53
(g111
tp185
Rp186
(dp187
btp188
Rp189
(dp190
bg7
(g8
((I1
S'11a62633145c07L'
p191
I-106
I53
tp192
tp193
Rp194
(dp195
g14
I53
sbg6
(g7
(g165
g168
tp196
Rp197
(dp198
bg7
(g74
g177
g148
tp199
Rp200
(dp201
btp202
Rp203
(dp204
bg119
tp205
Rp206
(dp207
bg7
(g8
((I1
S'11a62633145c07L'
p208
I-106
I53
tp209
tp210
Rp211
(dp212
g14
I53
sbg6
(g7
(g51
g64
tp213
Rp214
(dp215
bg7
(g71
g74
g77
g101
tp216
Rp217
(dp218
btp219
Rp220
(dp221
bg186
tp222
Rp223
(dp224
bg7
(g8
((I0
S'1L'
p225
I0
I1
tp226
tp227
Rp228
(dp229
g14
I53
sbg74
g168
g177
tp230
Rp231
(dp232
btp233
Rp234
(dp235
bg6
(g7
(g8
((I0
S'1L'
p236
I0
I1
tp237
tp238
Rp239
(dp240
g14
I53
sbg6
(g7
(g165
g168
tp241
Rp242
(dp243
bg7
(g74
g177
g148
tp244
Rp245
(dp246
btp247
Rp248
(dp249
bg186
tp250
Rp251
(dp252
bg7
(g8
((I1
S'1L'
p253
I0
I1
tp254
tp255
Rp256
(dp257
g14
I53
sbg6
(g7
(g51
g64
tp258
Rp259
(dp260
bg7
(g71
g74
g77
g101
tp261
Rp262
(dp263
btp264
Rp265
(dp266
bg119
tp267
Rp268
(dp269
bg7
(g8
((I1
S'11a62633145c07L'
p270
I-105
I53
tp271
tp272
Rp273
(dp274
g14
I53
sbg6
(g7
(g165
g168
tp275
Rp276
(dp277
bg7
(g74
g177
g148
tp278
Rp279
(dp280
btp281
Rp282
(dp283
bg119
tp284
Rp285
(dp286
bg7
(g8
((I1
S'11a62633145c07L'
p287
I-105
I53
tp288
tp289
Rp290
(dp291
g14
I53
sbg265
g186
tp292
Rp293
(dp294
btp295
Rp296
(dp297
bg6
(g7
(g8
((I0
S'1L'
p298
I0
I1
tp299
tp300
Rp301
(dp302
g14
I53
sbg203
g119
tp303
Rp304
(dp305
bg7
(g8
((I0
S'1L'
p306
I0
I1
tp307
tp308
Rp309
(dp310
g14
I53
sbg107
g186
tp311
Rp312
(dp313
bg7
(g8
((I0
S'11a62633145c07L'
p314
I-105
I53
tp315
tp316
Rp317
(dp318
g14
I53
sbg248
g186
tp319
Rp320
(dp321
bg7
(g8
((I1
S'11a62633145c07L'
p322
I-106
I53
tp323
tp324
Rp325
(dp326
g14
I53
sbg6
(g7
(g64
g77
tp327
Rp328
(dp329
bg7
(g74
g51
g101
tp330
Rp331
(dp332
btp333
Rp334
(dp335
bg148
tp336
Rp337
(dp338
bg7
(g8
((I1
S'11a62633145c07L'
p339
I-105
I53
tp340
tp341
Rp342
(dp343
g14
I53
sbg107
g119
tp344
Rp345
(dp346
bg7
(g8
((I0
S'11a62633145c07L'
p347
I-106
I53
tp348
tp349
Rp350
(dp351
g14
I53
sbg74
g168
g177
tp352
Rp353
(dp354
btp355
Rp356
(dp357
bg6
(g7
(g8
((I0
S'b333333333333L'
p358
I-53
I52
tp359
tp360
Rp361
(dp362
g14
I53
sbg74
tp363
Rp364
(dp365
bg7
(g8
((I0
S'3L'
p366
I-1
I2
tp367
tp368
Rp369
(dp370
g14
I53
sbg74
g177
tp371
Rp372
(dp373
bg7
(g8
((I0
S'5L'
p374
I-2
I3
tp375
tp376
Rp377
(dp378
g14
I53
sbg74
g53
(g81
tp379
Rp380
(dp381
btp382
Rp383
(dp384
bg7
(g8
((I1
S'1ba5e353f7ced9L'
p385
I-57
I53
tp386
tp387
Rp388
(dp389
g14
I53
sbg74
g101
tp390
Rp391
(dp392
bg7
(g8
((I0
S'13645a1cac0831L'
p393
I-54
I53
tp394
tp395
Rp396
(dp397
g14
I53
sbg74
g168
g177
tp398
Rp399
(dp400
bg7
(g8
((I1
S'13645a1cac0831L'
p401
I-54
I53
tp402
tp403
Rp404
(dp405
g14
I53
sbg64
g77
g148
tp406
Rp407
(dp408
bg7
(g8
((I1
S'13645a1cac0831L'
p409
I-54
I53
tp410
tp411
Rp412
(dp413
g14
I53
sbg74
g51
g148
g101
tp414
Rp415
(dp416
btp417
Rp418
(dp419
bg6
(g7
(g8
((I0
S'11a62633145c07L'
p420
I-106
I53
tp421
tp422
Rp423
(dp424
g14
I53
sbg6
(g7
(g74
g51
tp425
Rp426
(dp427
bg7
(g64
g77
g101
tp428
Rp429
(dp430
btp431
Rp432
(dp433
bg186
tp434
Rp435
(dp436
bg7
(g8
((I1
S'1L'
p437
I0
I1
tp438
tp439
Rp440
(dp441
g14
I53
sbg6
(g7
(g71
g74
g77
tp442
Rp443
(dp444
bg7
(g51
g64
g101
tp445
Rp446
(dp447
btp448
Rp449
(dp450
bg148
tp451
Rp452
(dp453
bg7
(g8
((I1
S'26ef9d0b14ba9L'
p454
I-156
I50
tp455
tp456
Rp457
(dp458
g14
I53
sbg6
(g7
(g6
(g7
(g71
g74
g77
tp459
Rp460
(dp461
bg7
(g51
g64
g101
tp462
Rp463
(dp464
btp465
Rp466
(dp467
bg168
tp468
Rp469
(dp470
bg7
(g177
g64
g148
tp471
Rp472
(dp473
btp474
Rp475
(dp476
bg186
tp477
Rp478
(dp479
bg7
(g8
((I1
S'26ef9d0b14ba9L'
p480
I-156
I50
tp481
tp482
Rp483
(dp484
g14
I53
sbg6
(g7
(g74
g51
tp485
Rp486
(dp487
bg7
(g64
g77
g101
tp488
Rp489
(dp490
btp491
Rp492
(dp493
bg119
tp494
Rp495
(dp496
bg7
(g8
((I1
S'11a62633145c07L'
p497
I-106
I53
tp498
tp499
Rp500
(dp501
g14
I53
sbg475
g119
tp502
Rp503
(dp504
bg7
(g8
((I0
S'1L'
p505
I0
I1
tp506
tp507
Rp508
(dp509
g14
I53
sbg168
g177
g64
tp510
Rp511
(dp512
btp513
Rp514
(dp515
bg6
(g7
(g8
((I0
S'1L'
p516
I0
I1
tp517
tp518
Rp519
(dp520
g14
I53
sbg6
(g7
(g466
g168
tp521
Rp522
(dp523
bg7
(g177
g64
g148
tp524
Rp525
(dp526
btp527
Rp528
(dp529
bg186
tp530
Rp531
(dp532
bg7
(g8
((I0
S'1L'
p533
I0
I1
tp534
tp535
Rp536
(dp537
g14
I53
sbg432
g119
tp538
Rp539
(dp540
bg7
(g8
((I0
S'11a62633145c07L'
p541
I-105
I53
tp542
tp543
Rp544
(dp545
g14
I53
sbg432
g186
tp546
Rp547
(dp548
bg7
(g8
((I1
S'11a62633145c07L'
p549
I-105
I53
tp550
tp551
Rp552
(dp553
g14
I53
sbg6
(g7
(g466
g168
tp554
Rp555
(dp556
bg7
(g177
g64
g148
tp557
Rp558
(dp559
btp560
Rp561
(dp562
bg119
tp563
Rp564
(dp565
btp566
Rp567
(dp568
bg6
(g7
(g8
((I0
S'1L'
p569
I0
I1
tp570
tp571
Rp572
(dp573
g14
I53
sbg528
g119
tp574
Rp575
(dp576
bg7
(g8
((I0
S'11a62633145c07L'
p577
I-105
I53
tp578
tp579
Rp580
(dp581
g14
I53
sbg528
g186
tp582
Rp583
(dp584
bg7
(g8
((I0
S'11a62633145c07L'
p585
I-105
I53
tp586
tp587
Rp588
(dp589
g14
I53
sbg432
g119
tp590
Rp591
(dp592
bg7
(g8
((I1
S'1L'
p593
I0
I1
tp594
tp595
Rp596
(dp597
g14
I53
sbg432
g186
tp598
Rp599
(dp600
bg7
(g8
((I1
S'11a62633145c07L'
p601
I-106
I53
tp602
tp603
Rp604
(dp605
g14
I53
sbg6
(g7
(g71
g74
g77
tp606
Rp607
(dp608
bg7
(g51
g64
g101
tp609
Rp610
(dp611
btp612
Rp613
(dp614
bg148
tp615
Rp616
(dp617
bg7
(g8
((I0
S'11a62633145c07L'
p618
I-106
I53
tp619
tp620
Rp621
(dp622
g14
I53
sbg168
g177
g64
tp623
Rp624
(dp625
btp626
Rp627
(dp628
bg6
(g7
(g8
((I0
S'b333333333333L'
p629
I-53
I52
tp630
tp631
Rp632
(dp633
g14
I53
sbg64
tp634
Rp635
(dp636
bg7
(g8
((I0
S'3L'
p637
I-1
I2
tp638
tp639
Rp640
(dp641
g14
I53
sbg177
g64
tp642
Rp643
(dp644
bg7
(g8
((I0
S'5L'
p645
I-2
I3
tp646
tp647
Rp648
(dp649
g14
I53
sbg64
g380
tp650
Rp651
(dp652
bg7
(g8
((I1
S'1ba5e353f7ced9L'
p653
I-57
I53
tp654
tp655
Rp656
(dp657
g14
I53
sbg64
g101
tp658
Rp659
(dp660
bg7
(g8
((I0
S'13645a1cac0831L'
p661
I-54
I53
tp662
tp663
Rp664
(dp665
g14
I53
sbg74
g77
g148
tp666
Rp667
(dp668
bg7
(g8
((I0
S'13645a1cac0831L'
p669
I-54
I53
tp670
tp671
Rp672
(dp673
g14
I53
sbg168
g177
g64
tp674
Rp675
(dp676
bg7
(g8
((I1
S'13645a1cac0831L'
p677
I-54
I53
tp678
tp679
Rp680
(dp681
g14
I53
sbg51
g64
g148
g101
tp682
Rp683
(dp684
btp685
Rp686
(dp687
bg6
(g7
(g8
((I0
S'26ef9d0b14ba9L'
p688
I-156
I50
tp689
tp690
Rp691
(dp692
g14
I53
sbg6
(g7
(g148
g101
tp693
Rp694
(dp695
bg7
(g71
g51
g168
g177
tp696
Rp697
(dp698
btp699
Rp700
(dp701
bg186
tp702
Rp703
(dp704
bg7
(g8
((I0
S'11a62633145c07L'
p705
I-106
I53
tp706
tp707
Rp708
(dp709
g14
I53
sbg700
g119
tp710
Rp711
(dp712
bg7
(g8
((I1
S'1L'
p713
I0
I1
tp714
tp715
Rp716
(dp717
g14
I53
sbg168
g101
tp718
Rp719
(dp720
bg7
(g8
((I0
S'11a62633145c07L'
p721
I-106
I53
tp722
tp723
Rp724
(dp725
g14
I53
sbg177
g77
g186
tp726
Rp727
(dp728
bg7
(g8
((I1
S'1L'
p729
I0
I1
tp730
tp731
Rp732
(dp733
g14
I53
sbg51
g177
g148
tp734
Rp735
(dp736
bg7
(g8
((I1
S'26ef9d0b14ba9L'
p737
I-156
I50
tp738
tp739
Rp740
(dp741
g14
I53
sbg119
g177
g77
tp742
Rp743
(dp744
btp745
Rp746
(dp747
bg6
(g7
(g8
((I0
S'11a62633145c07L'
p748
I-105
I53
tp749
tp750
Rp751
(dp752
g14
I53
sbg700
g119
tp753
Rp754
(dp755
bg7
(g8
((I1
S'1L'
p756
I0
I1
tp757
tp758
Rp759
(dp760
g14
I53
sbg700
g186
tp761
Rp762
(dp763
bg7
(g8
((I0
S'1L'
p764
I0
I1
tp765
tp766
Rp767
(dp768
g14
I53
sbg119
g177
g77
tp769
Rp770
(dp771
bg7
(g8
((I0
S'11a62633145c07L'
p772
I-105
I53
tp773
tp774
Rp775
(dp776
g14
I53
sbg177
g77
g186
tp777
Rp778
(dp779
btp780
Rp781
(dp782
bg6
(g7
(g8
((I1
S'1L'
p783
I0
I1
tp784
tp785
Rp786
(dp787
g14
I53
sbg6
(g7
(g148
g101
tp788
Rp789
(dp790
bg7
(g71
g51
g168
g177
tp791
Rp792
(dp793
btp794
Rp795
(dp796
bg119
tp797
Rp798
(dp799
bg7
(g8
((I1
S'11a62633145c07L'
p800
I-106
I53
tp801
tp802
Rp803
(dp804
g14
I53
sbg168
g101
tp805
Rp806
(dp807
bg7
(g8
((I1
S'11a62633145c07L'
p808
I-105
I53
tp809
tp810
Rp811
(dp812
g14
I53
sbg795
g186
tp813
Rp814
(dp815
bg7
(g8
((I0
S'11a62633145c07L'
p816
I-105
I53
tp817
tp818
Rp819
(dp820
g14
I53
sbg119
g177
g77
tp821
Rp822
(dp823
bg7
(g8
((I1
S'1L'
p824
I0
I1
tp825
tp826
Rp827
(dp828
g14
I53
sbg177
g77
g186
tp829
Rp830
(dp831
bg7
(g8
((I1
S'11a62633145c07L'
p832
I-106
I53
tp833
tp834
Rp835
(dp836
g14
I53
sbg51
g177
g148
tp837
Rp838
(dp839
btp840
Rp841
(dp842
bg6
(g8
((I0
S'3L'
p843
I-2
I2
tp844
tp845
Rp846
(dp847
g14
I53
sbg7
(g8
((I0
S'5L'
p848
I-2
I3
tp849
tp850
Rp851
(dp852
g14
I53
sbg15
(g81
tp853
Rp854
(dp855
btp856
Rp857
(dp858
bg7
(g8
((I1
S'3L'
p859
I-1
I2
tp860
tp861
Rp862
(dp863
g14
I53
sbg101
tp864
Rp865
(dp866
bg7
(g8
((I1
S'1ba5e353f7ced9L'
p867
I-57
I53
tp868
tp869
Rp870
(dp871
g14
I53
sbg177
tp872
Rp873
(dp874
bg7
(g8
((I1
S'13645a1cac0831L'
p875
I-54
I53
tp876
tp877
Rp878
(dp879
g14
I53
sbg168
g101
tp880
Rp881
(dp882
bg7
(g8
((I1
S'13645a1cac0831L'
p883
I-54
I53
tp884
tp885
Rp886
(dp887
g14
I53
sbg51
g177
g148
tp888
Rp889
(dp890
btp891
Rp892
(dp893
bcsympy.core.numbers
Zero
p894
(I0
tp895
Rp896
(dp897
bg896
g896
csympy.core.numbers
One
p898
(I1
tp899
Rp900
(dp901
btp902
Rp903
(dp904
btp905
Rp906
(dp907
b.