csympy.matrices.immutable
ImmutableMatrix
p0
(csympy.core.numbers
Integer
p1
(I4
tp2
Rp3
(dp4
bg3
csympy.core.containers
Tuple
p5
(csympy.core.numbers
Float
p6
((I1
S'11a62633145c07L'
p7
I-106
I53
tp8
tp9
Rp10
(dp11
S'_prec'
p12
I53
sbg6
((I1
S'11a62633145c07L'
p13
I-105
I53
tp14
tp15
Rp16
(dp17
g12
I53
sbg6
((I0
S'1L'
p18
I0
I1
tp19
tp20
Rp21
(dp22
g12
I53
sbcsympy.core.numbers
Zero
p23
(I0
tp24
Rp25
(dp26
bg6
((I0
S'26ef9d0b14ba9L'
p27
I-156
I50
tp28
tp29
Rp30
(dp31
g12
I53
sbg6
((I1
S'1L'
p32
I0
I1
tp33
tp34
Rp35
(dp36
g12
I53
sbg6
((I1
S'11a62633145c07L'
p37
I-105
I53
tp38
tp39
Rp40
(dp41
g12
I53
sbg25
g6
((I0
S'1L'
p42
I0
I1
tp43
tp44
Rp45
(dp46
g12
I53
sbg25
g6
((I0
S'11a62633145c07L'
p47
I-106
I53
tp48
tp49
Rp50
(dp51
g12
I53
sbg25
g25
g25
g25
csympy.core.numbers
One
p52
(I1
tp53
Rp54
(dp55
btp56
Rp57
(dp58
btp59
Rp60
(dp61
b.